target datalayout = "e-m:e-p270:32:32-p271:32:32-p272:64:64-i64:64-i128:128-f80:128-n8:16:32:64-S128"
target triple = "x86_64-pc-linux-gnu"

%"class.net::SpdyPrefixedBufferReader" = type { ptr, ptr, i64, i64 }

; Function Attrs: mustprogress nounwind uwtable
define linkonce_odr noundef ptr @_ZNSt11__copy_moveILb0ELb1ESt26random_access_iterator_tagE8__copy_mIcEEPT_PKS3_S6_S4_(ptr noundef %0, ptr noundef %1, ptr noundef %2) #0 comdat align 2 {
  %4 = alloca ptr, align 8
  %5 = alloca ptr, align 8
  %6 = alloca ptr, align 8
  %7 = alloca i64, align 8
  store ptr %0, ptr %4, align 8, !tbaa !8
  store ptr %1, ptr %5, align 8, !tbaa !8
  store ptr %2, ptr %6, align 8, !tbaa !8
  call void @llvm.lifetime.start.p0(i64 8, ptr %7) #9
  %8 = load ptr, ptr %5, align 8, !tbaa !8
  %9 = load ptr, ptr %4, align 8, !tbaa !8
  %10 = ptrtoint ptr %8 to i64
  %11 = ptrtoint ptr %9 to i64
  %12 = sub i64 %10, %11
  store i64 %12, ptr %7, align 8, !tbaa !10
  %13 = load i64, ptr %7, align 8, !tbaa !10
  %14 = icmp ne i64 %13, 0
  br i1 %14, label %15, label %20

15:                                               ; preds = %3
  %16 = load ptr, ptr %6, align 8, !tbaa !8
  %17 = load ptr, ptr %4, align 8, !tbaa !8
  %18 = load i64, ptr %7, align 8, !tbaa !10
  %19 = mul i64 1, %18
  call void @llvm.memmove.p0.p0.i64(ptr align 1 %16, ptr align 1 %17, i64 %19, i1 false)
  br label %20

20:                                               ; preds = %15, %3
  %21 = load ptr, ptr %6, align 8, !tbaa !8
  %22 = load i64, ptr %7, align 8, !tbaa !10
  %23 = getelementptr inbounds i8, ptr %21, i64 %22
  call void @llvm.lifetime.end.p0(i64 8, ptr %7) #9
  ret ptr %23
}

; Function Attrs: inlinehint mustprogress uwtable
define linkonce_odr noundef ptr @_ZSt14__copy_move_a2ILb0EPKcPcET1_T0_S4_S3_(ptr noundef %0, ptr noundef %1, ptr noundef %2) #2 comdat {
  %4 = alloca ptr, align 8
  %5 = alloca ptr, align 8
  %6 = alloca ptr, align 8
  store ptr %0, ptr %4, align 8, !tbaa !8
  store ptr %1, ptr %5, align 8, !tbaa !8
  store ptr %2, ptr %6, align 8, !tbaa !8
  %7 = load ptr, ptr %4, align 8, !tbaa !8
  %8 = load ptr, ptr %5, align 8, !tbaa !8
  %9 = load ptr, ptr %6, align 8, !tbaa !8
  %10 = call noundef ptr @_ZNSt11__copy_moveILb0ELb1ESt26random_access_iterator_tagE8__copy_mIcEEPT_PKS3_S6_S4_(ptr noundef %7, ptr noundef %8, ptr noundef %9)
  ret ptr %10
}

; Function Attrs: inlinehint mustprogress nounwind uwtable
define linkonce_odr noundef ptr @_ZSt12__niter_wrapIPcET_RKS1_S1_(ptr noundef nonnull align 8 dereferenceable(8) %0, ptr noundef %1) #4 comdat {
  %3 = alloca ptr, align 8
  %4 = alloca ptr, align 8
  store ptr %0, ptr %3, align 8, !tbaa !32
  store ptr %1, ptr %4, align 8, !tbaa !8
  %5 = load ptr, ptr %4, align 8, !tbaa !8
  ret ptr %5
}

; Function Attrs: inlinehint mustprogress uwtable
define linkonce_odr noundef ptr @_ZSt14__copy_move_a1ILb0EPKcPcET1_T0_S4_S3_(ptr noundef %0, ptr noundef %1, ptr noundef %2) #2 comdat {
  %4 = alloca ptr, align 8
  %5 = alloca ptr, align 8
  %6 = alloca ptr, align 8
  store ptr %0, ptr %4, align 8, !tbaa !8
  store ptr %1, ptr %5, align 8, !tbaa !8
  store ptr %2, ptr %6, align 8, !tbaa !8
  %7 = load ptr, ptr %4, align 8, !tbaa !8
  %8 = load ptr, ptr %5, align 8, !tbaa !8
  %9 = load ptr, ptr %6, align 8, !tbaa !8
  %10 = call noundef ptr @_ZSt14__copy_move_a2ILb0EPKcPcET1_T0_S4_S3_(ptr noundef %7, ptr noundef %8, ptr noundef %9)
  ret ptr %10
}

; Function Attrs: inlinehint mustprogress nounwind uwtable
define linkonce_odr noundef ptr @_ZSt12__niter_baseIPcET_S1_(ptr noundef %0) #4 comdat {
  %2 = alloca ptr, align 8
  store ptr %0, ptr %2, align 8, !tbaa !8
  %3 = load ptr, ptr %2, align 8, !tbaa !8
  ret ptr %3
}

; Function Attrs: inlinehint mustprogress nounwind uwtable
define linkonce_odr noundef ptr @_ZSt12__niter_baseIPKcET_S2_(ptr noundef %0) #4 comdat {
  %2 = alloca ptr, align 8
  store ptr %0, ptr %2, align 8, !tbaa !8
  %3 = load ptr, ptr %2, align 8, !tbaa !8
  ret ptr %3
}

; Function Attrs: inlinehint mustprogress uwtable
define linkonce_odr noundef ptr @_ZSt13__copy_move_aILb0EPKcPcET1_T0_S4_S3_(ptr noundef %0, ptr noundef %1, ptr noundef %2) #2 comdat {
  %4 = alloca ptr, align 8
  %5 = alloca ptr, align 8
  %6 = alloca ptr, align 8
  store ptr %0, ptr %4, align 8, !tbaa !8
  store ptr %1, ptr %5, align 8, !tbaa !8
  store ptr %2, ptr %6, align 8, !tbaa !8
  %7 = load ptr, ptr %4, align 8, !tbaa !8
  %8 = call noundef ptr @_ZSt12__niter_baseIPKcET_S2_(ptr noundef %7) #9
  %9 = load ptr, ptr %5, align 8, !tbaa !8
  %10 = call noundef ptr @_ZSt12__niter_baseIPKcET_S2_(ptr noundef %9) #9
  %11 = load ptr, ptr %6, align 8, !tbaa !8
  %12 = call noundef ptr @_ZSt12__niter_baseIPcET_S1_(ptr noundef %11) #9
  %13 = call noundef ptr @_ZSt14__copy_move_a1ILb0EPKcPcET1_T0_S4_S3_(ptr noundef %8, ptr noundef %10, ptr noundef %12)
  %14 = call noundef ptr @_ZSt12__niter_wrapIPcET_RKS1_S1_(ptr noundef nonnull align 8 dereferenceable(8) %6, ptr noundef %13)
  ret ptr %14
}

; Function Attrs: inlinehint mustprogress nounwind uwtable
define linkonce_odr noundef ptr @_ZSt12__miter_baseIPKcET_S2_(ptr noundef %0) #4 comdat {
  %2 = alloca ptr, align 8
  store ptr %0, ptr %2, align 8, !tbaa !8
  %3 = load ptr, ptr %2, align 8, !tbaa !8
  ret ptr %3
}

; Function Attrs: inlinehint mustprogress uwtable
define linkonce_odr noundef ptr @_ZSt4copyIPKcPcET0_T_S4_S3_(ptr noundef %0, ptr noundef %1, ptr noundef %2) #2 comdat {
  %4 = alloca ptr, align 8
  %5 = alloca ptr, align 8
  %6 = alloca ptr, align 8
  store ptr %0, ptr %4, align 8, !tbaa !8
  store ptr %1, ptr %5, align 8, !tbaa !8
  store ptr %2, ptr %6, align 8, !tbaa !8
  %7 = load ptr, ptr %4, align 8, !tbaa !8
  %8 = call noundef ptr @_ZSt12__miter_baseIPKcET_S2_(ptr noundef %7)
  %9 = load ptr, ptr %5, align 8, !tbaa !8
  %10 = call noundef ptr @_ZSt12__miter_baseIPKcET_S2_(ptr noundef %9)
  %11 = load ptr, ptr %6, align 8, !tbaa !8
  %12 = call noundef ptr @_ZSt13__copy_move_aILb0EPKcPcET1_T0_S4_S3_(ptr noundef %8, ptr noundef %10, ptr noundef %11)
  ret ptr %12
}

; Function Attrs: mustprogress nounwind uwtable
define noundef i64 @_ZN3net24SpdyPrefixedBufferReader9AvailableEv(ptr noundef nonnull align 8 dereferenceable(32) %0) #0 align 2 {
  %2 = alloca ptr, align 8
  store ptr %0, ptr %2, align 8, !tbaa !3
  %3 = load ptr, ptr %2, align 8
  %4 = getelementptr inbounds nuw %"class.net::SpdyPrefixedBufferReader", ptr %3, i32 0, i32 2
  %5 = load i64, ptr %4, align 8, !tbaa !15
  %6 = getelementptr inbounds nuw %"class.net::SpdyPrefixedBufferReader", ptr %3, i32 0, i32 3
  %7 = load i64, ptr %6, align 8, !tbaa !16
  %8 = add i64 %5, %7
  ret i64 %8
}

; Function Attrs: mustprogress uwtable
define noundef zeroext i1 @_ZN3net24SpdyPrefixedBufferReader5ReadNEmPc(ptr noundef nonnull align 8 dereferenceable(32) %0, i64 noundef %1, ptr noundef %2) #1 align 2 {
  %4 = alloca i1, align 1
  %5 = alloca ptr, align 8
  %6 = alloca i64, align 8
  %7 = alloca ptr, align 8
  store ptr %0, ptr %5, align 8, !tbaa !3
  store i64 %1, ptr %6, align 8, !tbaa !10
  store ptr %2, ptr %7, align 8, !tbaa !8
  %8 = load ptr, ptr %5, align 8
  %9 = call noundef i64 @_ZN3net24SpdyPrefixedBufferReader9AvailableEv(ptr noundef nonnull align 8 dereferenceable(32) %8)
  %10 = load i64, ptr %6, align 8, !tbaa !10
  %11 = icmp ult i64 %9, %10
  br i1 %11, label %12, label %13

12:                                               ; preds = %3
  store i1 false, ptr %4, align 1
  br label %72

13:                                               ; preds = %3
  %14 = getelementptr inbounds nuw %"class.net::SpdyPrefixedBufferReader", ptr %8, i32 0, i32 2
  %15 = load i64, ptr %14, align 8, !tbaa !15
  %16 = load i64, ptr %6, align 8, !tbaa !10
  %17 = icmp uge i64 %15, %16
  br i1 %17, label %18, label %35

18:                                               ; preds = %13
  %19 = getelementptr inbounds nuw %"class.net::SpdyPrefixedBufferReader", ptr %8, i32 0, i32 0
  %20 = load ptr, ptr %19, align 8, !tbaa !12
  %21 = getelementptr inbounds nuw %"class.net::SpdyPrefixedBufferReader", ptr %8, i32 0, i32 0
  %22 = load ptr, ptr %21, align 8, !tbaa !12
  %23 = load i64, ptr %6, align 8, !tbaa !10
  %24 = getelementptr inbounds nuw i8, ptr %22, i64 %23
  %25 = load ptr, ptr %7, align 8, !tbaa !8
  %26 = call noundef ptr @_ZSt4copyIPKcPcET0_T_S4_S3_(ptr noundef %20, ptr noundef %24, ptr noundef %25)
  %27 = load i64, ptr %6, align 8, !tbaa !10
  %28 = getelementptr inbounds nuw %"class.net::SpdyPrefixedBufferReader", ptr %8, i32 0, i32 0
  %29 = load ptr, ptr %28, align 8, !tbaa !12
  %30 = getelementptr inbounds nuw i8, ptr %29, i64 %27
  store ptr %30, ptr %28, align 8, !tbaa !12
  %31 = load i64, ptr %6, align 8, !tbaa !10
  %32 = getelementptr inbounds nuw %"class.net::SpdyPrefixedBufferReader", ptr %8, i32 0, i32 2
  %33 = load i64, ptr %32, align 8, !tbaa !15
  %34 = sub i64 %33, %31
  store i64 %34, ptr %32, align 8, !tbaa !15
  store i1 true, ptr %4, align 1
  br label %72

35:                                               ; preds = %13
  %36 = getelementptr inbounds nuw %"class.net::SpdyPrefixedBufferReader", ptr %8, i32 0, i32 2
  %37 = load i64, ptr %36, align 8, !tbaa !15
  %38 = icmp ne i64 %37, 0
  br i1 %38, label %39, label %54

39:                                               ; preds = %35
  %40 = getelementptr inbounds nuw %"class.net::SpdyPrefixedBufferReader", ptr %8, i32 0, i32 0
  %41 = load ptr, ptr %40, align 8, !tbaa !12
  %42 = getelementptr inbounds nuw %"class.net::SpdyPrefixedBufferReader", ptr %8, i32 0, i32 0
  %43 = load ptr, ptr %42, align 8, !tbaa !12
  %44 = getelementptr inbounds nuw %"class.net::SpdyPrefixedBufferReader", ptr %8, i32 0, i32 2
  %45 = load i64, ptr %44, align 8, !tbaa !15
  %46 = getelementptr inbounds nuw i8, ptr %43, i64 %45
  %47 = load ptr, ptr %7, align 8, !tbaa !8
  %48 = call noundef ptr @_ZSt4copyIPKcPcET0_T_S4_S3_(ptr noundef %41, ptr noundef %46, ptr noundef %47)
  store ptr %48, ptr %7, align 8, !tbaa !8
  %49 = getelementptr inbounds nuw %"class.net::SpdyPrefixedBufferReader", ptr %8, i32 0, i32 2
  %50 = load i64, ptr %49, align 8, !tbaa !15
  %51 = load i64, ptr %6, align 8, !tbaa !10
  %52 = sub i64 %51, %50
  store i64 %52, ptr %6, align 8, !tbaa !10
  %53 = getelementptr inbounds nuw %"class.net::SpdyPrefixedBufferReader", ptr %8, i32 0, i32 2
  store i64 0, ptr %53, align 8, !tbaa !15
  br label %54

54:                                               ; preds = %39, %35
  br label %55

55:                                               ; preds = %54
  %56 = getelementptr inbounds nuw %"class.net::SpdyPrefixedBufferReader", ptr %8, i32 0, i32 1
  %57 = load ptr, ptr %56, align 8, !tbaa !14
  %58 = getelementptr inbounds nuw %"class.net::SpdyPrefixedBufferReader", ptr %8, i32 0, i32 1
  %59 = load ptr, ptr %58, align 8, !tbaa !14
  %60 = load i64, ptr %6, align 8, !tbaa !10
  %61 = getelementptr inbounds nuw i8, ptr %59, i64 %60
  %62 = load ptr, ptr %7, align 8, !tbaa !8
  %63 = call noundef ptr @_ZSt4copyIPKcPcET0_T_S4_S3_(ptr noundef %57, ptr noundef %61, ptr noundef %62)
  %64 = load i64, ptr %6, align 8, !tbaa !10
  %65 = getelementptr inbounds nuw %"class.net::SpdyPrefixedBufferReader", ptr %8, i32 0, i32 1
  %66 = load ptr, ptr %65, align 8, !tbaa !14
  %67 = getelementptr inbounds nuw i8, ptr %66, i64 %64
  store ptr %67, ptr %65, align 8, !tbaa !14
  %68 = load i64, ptr %6, align 8, !tbaa !10
  %69 = getelementptr inbounds nuw %"class.net::SpdyPrefixedBufferReader", ptr %8, i32 0, i32 3
  %70 = load i64, ptr %69, align 8, !tbaa !16
  %71 = sub i64 %70, %68
  store i64 %71, ptr %69, align 8, !tbaa !16
  store i1 true, ptr %4, align 1
  br label %72

72:                                               ; preds = %55, %18, %12
  %73 = load i1, ptr %4, align 1
  ret i1 %73
}