; Function Attrs: mustprogress nofree norecurse nosync nounwind willreturn memory(readwrite, inaccessiblemem: none) uwtable
define noundef zeroext i1 @_ZN3net24SpdyPrefixedBufferReader5ReadNEmPc(ptr noundef nonnull align 8 captures(none) dereferenceable(32) %0, i64 noundef %1, ptr noundef writeonly captures(none) %2) local_unnamed_addr #2 align 2 {
  %4 = getelementptr inbounds nuw i8, ptr %0, i64 16
  %5 = load i64, ptr %4, align 8, !tbaa !11
  %6 = getelementptr inbounds nuw i8, ptr %0, i64 24
  %7 = load i64, ptr %6, align 8, !tbaa !12
  %8 = add i64 %7, %5
  %9 = icmp uge i64 %8, %1
  br i1 %9, label %10, label %34

10:                                               ; preds = %3
  %.not = icmp ult i64 %5, %1
  br i1 %.not, label %18, label %11

11:                                               ; preds = %10
  %.not.i.i.i.i.i = icmp samesign eq i64 %1, 0
  br i1 %.not.i.i.i.i.i, label %_ZSt4copyIPKcPcET0_T_S4_S3_.exit, label %12

12:                                               ; preds = %11
  %13 = load ptr, ptr %0, align 8, !tbaa !3
  tail call void @llvm.memmove.p0.p0.i64(ptr align 1 %2, ptr align 1 %13, i64 %1, i1 false)
  %.pre = load i64, ptr %4, align 8, !tbaa !11
  br label %_ZSt4copyIPKcPcET0_T_S4_S3_.exit

_ZSt4copyIPKcPcET0_T_S4_S3_.exit:                 ; preds = %11, %12
  %14 = phi i64 [ %5, %11 ], [ %.pre, %12 ]
  %15 = load ptr, ptr %0, align 8, !tbaa !3
  %16 = getelementptr inbounds nuw i8, ptr %15, i64 %1
  store ptr %16, ptr %0, align 8, !tbaa !3
  %17 = sub i64 %14, %1
  store i64 %17, ptr %4, align 8, !tbaa !11
  br label %34

18:                                               ; preds = %10
  %.not17 = icmp eq i64 %5, 0
  br i1 %.not17, label %.thread, label %20

.thread:                                          ; preds = %18
  %19 = getelementptr inbounds nuw i8, ptr %0, i64 8
  br label %26

20:                                               ; preds = %18
  %21 = load ptr, ptr %0, align 8, !tbaa !3
  tail call void @llvm.memmove.p0.p0.i64(ptr align 1 %2, ptr align 1 %21, i64 %5, i1 false)
  %22 = getelementptr inbounds i8, ptr %2, i64 %5
  %23 = load i64, ptr %4, align 8, !tbaa !11
  %24 = sub i64 %1, %23
  store i64 0, ptr %4, align 8, !tbaa !11
  %25 = getelementptr inbounds nuw i8, ptr %0, i64 8
  %.not.i.i.i.i.i20 = icmp samesign eq i64 %24, 0
  br i1 %.not.i.i.i.i.i20, label %_ZSt4copyIPKcPcET0_T_S4_S3_.exit21, label %26

26:                                               ; preds = %.thread, %20
  %27 = phi ptr [ %19, %.thread ], [ %25, %20 ]
  %.027 = phi ptr [ %2, %.thread ], [ %22, %20 ]
  %.01325 = phi i64 [ %1, %.thread ], [ %24, %20 ]
  %28 = load ptr, ptr %27, align 8, !tbaa !10
  tail call void @llvm.memmove.p0.p0.i64(ptr align 1 %.027, ptr align 1 %28, i64 %.01325, i1 false)
  br label %_ZSt4copyIPKcPcET0_T_S4_S3_.exit21

_ZSt4copyIPKcPcET0_T_S4_S3_.exit21:               ; preds = %20, %26
  %29 = phi ptr [ %25, %20 ], [ %27, %26 ]
  %.01326 = phi i64 [ 0, %20 ], [ %.01325, %26 ]
  %30 = load ptr, ptr %29, align 8, !tbaa !10
  %31 = getelementptr inbounds nuw i8, ptr %30, i64 %.01326
  store ptr %31, ptr %29, align 8, !tbaa !10
  %32 = load i64, ptr %6, align 8, !tbaa !12
  %33 = sub i64 %32, %.01326
  store i64 %33, ptr %6, align 8, !tbaa !12
  br label %34

34:                                               ; preds = %3, %_ZSt4copyIPKcPcET0_T_S4_S3_.exit21, %_ZSt4copyIPKcPcET0_T_S4_S3_.exit
  ret i1 %9
}